; ModuleID = '24/1944.c'
source_filename = "24/1944.c"
target datalayout = "e-m:e-p270:32:32-p271:32:32-p272:64:64-i64:64-f80:128-n8:16:32:64-S128"
target triple = "x86_64-pc-linux-gnu"

@.str = private unnamed_addr constant [3 x i8] c"%c\00", align 1
@.str.1 = private unnamed_addr constant [2 x i8] c"\0A\00", align 1

; Function Attrs: noinline nounwind uwtable
define dso_local i32 @main() #0 {
  %1 = alloca i32, align 4
  %2 = alloca [200000 x i8], align 16
  %3 = alloca i32, align 4
  %4 = alloca i32, align 4
  %5 = alloca i32, align 4
  %6 = alloca i32, align 4
  %7 = alloca i32, align 4
  %8 = alloca i32, align 4
  %9 = alloca i32, align 4
  %10 = alloca i32, align 4
  %11 = alloca [200 x i32], align 16
  %12 = alloca i32, align 4
  %13 = alloca i32, align 4
  %14 = alloca i32, align 4
  %15 = alloca i32, align 4
  %16 = alloca [200 x i32], align 16
  %17 = alloca i32, align 4
  %18 = alloca i32, align 4
  store i32 0, i32* %1, align 4
  store i32 0, i32* %15, align 4
  store i32 -1, i32* %13, align 4
  %19 = getelementptr inbounds [200000 x i8], [200000 x i8]* %2, i64 0, i64 0
  %20 = call i32 (i8*, ...) bitcast (i32 (...)* @gets to i32 (i8*, ...)*)(i8* %19)
  %21 = getelementptr inbounds [200000 x i8], [200000 x i8]* %2, i64 0, i64 0
  %22 = call i64 @strlen(i8* %21) #3
  %23 = trunc i64 %22 to i32
  store i32 %23, i32* %10, align 4
  store i32 0, i32* %3, align 4
  br label %24

24:                                               ; preds = %155, %0
  %25 = load i32, i32* %3, align 4
  %26 = load i32, i32* %10, align 4
  %27 = sub nsw i32 %26, 1
  %28 = icmp sle i32 %25, %27
  br i1 %28, label %29, label %158

29:                                               ; preds = %24
  %30 = load i32, i32* %3, align 4
  %31 = icmp eq i32 %30, 0
  br i1 %31, label %32, label %47

32:                                               ; preds = %29
  %33 = load i32, i32* %3, align 4
  %34 = sext i32 %33 to i64
  %35 = getelementptr inbounds [200000 x i8], [200000 x i8]* %2, i64 0, i64 %34
  %36 = load i8, i8* %35, align 1
  %37 = sext i8 %36 to i32
  %38 = icmp eq i32 %37, 32
  br i1 %38, label %46, label %39

39:                                               ; preds = %32
  %40 = load i32, i32* %3, align 4
  %41 = sext i32 %40 to i64
  %42 = getelementptr inbounds [200000 x i8], [200000 x i8]* %2, i64 0, i64 %41
  %43 = load i8, i8* %42, align 1
  %44 = sext i8 %43 to i32
  %45 = icmp eq i32 %44, 44
  br i1 %45, label %46, label %47

46:                                               ; preds = %39, %32
  br label %155

47:                                               ; preds = %39, %29
  %48 = load i32, i32* %3, align 4
  %49 = icmp eq i32 %48, 0
  br i1 %49, label %50, label %64

50:                                               ; preds = %47
  %51 = load i32, i32* %3, align 4
  %52 = sext i32 %51 to i64
  %53 = getelementptr inbounds [200000 x i8], [200000 x i8]* %2, i64 0, i64 %52
  %54 = load i8, i8* %53, align 1
  %55 = sext i8 %54 to i32
  %56 = icmp ne i32 %55, 32
  br i1 %56, label %57, label %64

57:                                               ; preds = %50
  %58 = load i32, i32* %3, align 4
  %59 = sext i32 %58 to i64
  %60 = getelementptr inbounds [200000 x i8], [200000 x i8]* %2, i64 0, i64 %59
  %61 = load i8, i8* %60, align 1
  %62 = sext i8 %61 to i32
  %63 = icmp ne i32 %62, 44
  br i1 %63, label %83, label %64

64:                                               ; preds = %57, %50, %47
  %65 = load i32, i32* %3, align 4
  %66 = icmp ne i32 %65, 0
  br i1 %66, label %67, label %154

67:                                               ; preds = %64
  %68 = load i32, i32* %3, align 4
  %69 = sub nsw i32 %68, 1
  %70 = sext i32 %69 to i64
  %71 = getelementptr inbounds [200000 x i8], [200000 x i8]* %2, i64 0, i64 %70
  %72 = load i8, i8* %71, align 1
  %73 = sext i8 %72 to i32
  %74 = icmp eq i32 %73, 32
  br i1 %74, label %83, label %75

75:                                               ; preds = %67
  %76 = load i32, i32* %3, align 4
  %77 = sub nsw i32 %76, 1
  %78 = sext i32 %77 to i64
  %79 = getelementptr inbounds [200000 x i8], [200000 x i8]* %2, i64 0, i64 %78
  %80 = load i8, i8* %79, align 1
  %81 = sext i8 %80 to i32
  %82 = icmp eq i32 %81, 44
  br i1 %82, label %83, label %154

83:                                               ; preds = %75, %67, %57
  %84 = load i32, i32* %3, align 4
  %85 = sext i32 %84 to i64
  %86 = getelementptr inbounds [200000 x i8], [200000 x i8]* %2, i64 0, i64 %85
  %87 = load i8, i8* %86, align 1
  %88 = sext i8 %87 to i32
  %89 = icmp ne i32 %88, 44
  br i1 %89, label %90, label %154

90:                                               ; preds = %83
  %91 = load i32, i32* %3, align 4
  %92 = sext i32 %91 to i64
  %93 = getelementptr inbounds [200000 x i8], [200000 x i8]* %2, i64 0, i64 %92
  %94 = load i8, i8* %93, align 1
  %95 = sext i8 %94 to i32
  %96 = icmp ne i32 %95, 32
  br i1 %96, label %97, label %154

97:                                               ; preds = %90
  %98 = load i32, i32* %13, align 4
  %99 = add nsw i32 %98, 1
  store i32 %99, i32* %13, align 4
  %100 = load i32, i32* %13, align 4
  %101 = sext i32 %100 to i64
  %102 = getelementptr inbounds [200 x i32], [200 x i32]* %11, i64 0, i64 %101
  store i32 1, i32* %102, align 4
  %103 = load i32, i32* %3, align 4
  %104 = load i32, i32* %13, align 4
  %105 = sext i32 %104 to i64
  %106 = getelementptr inbounds [200 x i32], [200 x i32]* %16, i64 0, i64 %105
  store i32 %103, i32* %106, align 4
  %107 = load i32, i32* %3, align 4
  %108 = add nsw i32 %107, 1
  store i32 %108, i32* %5, align 4
  br label %109

109:                                              ; preds = %150, %97
  %110 = load i32, i32* %5, align 4
  %111 = load i32, i32* %10, align 4
  %112 = sub nsw i32 %111, 1
  %113 = icmp sle i32 %110, %112
  br i1 %113, label %114, label %153

114:                                              ; preds = %109
  %115 = load i32, i32* %5, align 4
  %116 = sext i32 %115 to i64
  %117 = getelementptr inbounds [200000 x i8], [200000 x i8]* %2, i64 0, i64 %116
  %118 = load i8, i8* %117, align 1
  %119 = sext i8 %118 to i32
  %120 = icmp eq i32 %119, 32
  br i1 %120, label %128, label %121

121:                                              ; preds = %114
  %122 = load i32, i32* %5, align 4
  %123 = sext i32 %122 to i64
  %124 = getelementptr inbounds [200000 x i8], [200000 x i8]* %2, i64 0, i64 %123
  %125 = load i8, i8* %124, align 1
  %126 = sext i8 %125 to i32
  %127 = icmp eq i32 %126, 44
  br i1 %127, label %128, label %129

128:                                              ; preds = %121, %114
  br label %153

129:                                              ; preds = %121
  %130 = load i32, i32* %5, align 4
  %131 = sext i32 %130 to i64
  %132 = getelementptr inbounds [200000 x i8], [200000 x i8]* %2, i64 0, i64 %131
  %133 = load i8, i8* %132, align 1
  %134 = sext i8 %133 to i32
  %135 = icmp ne i32 %134, 32
  br i1 %135, label %136, label %149

136:                                              ; preds = %129
  %137 = load i32, i32* %5, align 4
  %138 = sext i32 %137 to i64
  %139 = getelementptr inbounds [200000 x i8], [200000 x i8]* %2, i64 0, i64 %138
  %140 = load i8, i8* %139, align 1
  %141 = sext i8 %140 to i32
  %142 = icmp ne i32 %141, 44
  br i1 %142, label %143, label %149

143:                                              ; preds = %136
  %144 = load i32, i32* %13, align 4
  %145 = sext i32 %144 to i64
  %146 = getelementptr inbounds [200 x i32], [200 x i32]* %11, i64 0, i64 %145
  %147 = load i32, i32* %146, align 4
  %148 = add nsw i32 %147, 1
  store i32 %148, i32* %146, align 4
  br label %149

149:                                              ; preds = %143, %136, %129
  br label %150

150:                                              ; preds = %149
  %151 = load i32, i32* %5, align 4
  %152 = add nsw i32 %151, 1
  store i32 %152, i32* %5, align 4
  br label %109

153:                                              ; preds = %128, %109
  br label %154

154:                                              ; preds = %153, %90, %83, %75, %64
  br label %155

155:                                              ; preds = %154, %46
  %156 = load i32, i32* %3, align 4
  %157 = add nsw i32 %156, 1
  store i32 %157, i32* %3, align 4
  br label %24

158:                                              ; preds = %24
  store i32 0, i32* %7, align 4
  store i32 1000, i32* %6, align 4
  store i32 0, i32* %3, align 4
  br label %159

159:                                              ; preds = %190, %158
  %160 = load i32, i32* %3, align 4
  %161 = load i32, i32* %13, align 4
  %162 = icmp sle i32 %160, %161
  br i1 %162, label %163, label %193

163:                                              ; preds = %159
  %164 = load i32, i32* %7, align 4
  %165 = load i32, i32* %3, align 4
  %166 = sext i32 %165 to i64
  %167 = getelementptr inbounds [200 x i32], [200 x i32]* %11, i64 0, i64 %166
  %168 = load i32, i32* %167, align 4
  %169 = icmp slt i32 %164, %168
  br i1 %169, label %170, label %176

170:                                              ; preds = %163
  %171 = load i32, i32* %3, align 4
  %172 = sext i32 %171 to i64
  %173 = getelementptr inbounds [200 x i32], [200 x i32]* %11, i64 0, i64 %172
  %174 = load i32, i32* %173, align 4
  store i32 %174, i32* %7, align 4
  %175 = load i32, i32* %3, align 4
  store i32 %175, i32* %17, align 4
  br label %176

176:                                              ; preds = %170, %163
  %177 = load i32, i32* %6, align 4
  %178 = load i32, i32* %3, align 4
  %179 = sext i32 %178 to i64
  %180 = getelementptr inbounds [200 x i32], [200 x i32]* %11, i64 0, i64 %179
  %181 = load i32, i32* %180, align 4
  %182 = icmp sgt i32 %177, %181
  br i1 %182, label %183, label %189

183:                                              ; preds = %176
  %184 = load i32, i32* %3, align 4
  %185 = sext i32 %184 to i64
  %186 = getelementptr inbounds [200 x i32], [200 x i32]* %11, i64 0, i64 %185
  %187 = load i32, i32* %186, align 4
  store i32 %187, i32* %6, align 4
  %188 = load i32, i32* %3, align 4
  store i32 %188, i32* %18, align 4
  br label %189

189:                                              ; preds = %183, %176
  br label %190

190:                                              ; preds = %189
  %191 = load i32, i32* %3, align 4
  %192 = add nsw i32 %191, 1
  store i32 %192, i32* %3, align 4
  br label %159

193:                                              ; preds = %159
  %194 = load i32, i32* %17, align 4
  store i32 %194, i32* %8, align 4
  %195 = load i32, i32* %18, align 4
  store i32 %195, i32* %9, align 4
  %196 = load i32, i32* %8, align 4
  %197 = sext i32 %196 to i64
  %198 = getelementptr inbounds [200 x i32], [200 x i32]* %16, i64 0, i64 %197
  %199 = load i32, i32* %198, align 4
  store i32 %199, i32* %3, align 4
  br label %200

200:                                              ; preds = %220, %193
  %201 = load i32, i32* %3, align 4
  %202 = load i32, i32* %8, align 4
  %203 = sext i32 %202 to i64
  %204 = getelementptr inbounds [200 x i32], [200 x i32]* %16, i64 0, i64 %203
  %205 = load i32, i32* %204, align 4
  %206 = load i32, i32* %8, align 4
  %207 = sext i32 %206 to i64
  %208 = getelementptr inbounds [200 x i32], [200 x i32]* %11, i64 0, i64 %207
  %209 = load i32, i32* %208, align 4
  %210 = add nsw i32 %205, %209
  %211 = sub nsw i32 %210, 1
  %212 = icmp sle i32 %201, %211
  br i1 %212, label %213, label %223

213:                                              ; preds = %200
  %214 = load i32, i32* %3, align 4
  %215 = sext i32 %214 to i64
  %216 = getelementptr inbounds [200000 x i8], [200000 x i8]* %2, i64 0, i64 %215
  %217 = load i8, i8* %216, align 1
  %218 = sext i8 %217 to i32
  %219 = call i32 (i8*, ...) @printf(i8* getelementptr inbounds ([3 x i8], [3 x i8]* @.str, i64 0, i64 0), i32 %218)
  br label %220

220:                                              ; preds = %213
  %221 = load i32, i32* %3, align 4
  %222 = add nsw i32 %221, 1
  store i32 %222, i32* %3, align 4
  br label %200

223:                                              ; preds = %200
  %224 = call i32 (i8*, ...) @printf(i8* getelementptr inbounds ([2 x i8], [2 x i8]* @.str.1, i64 0, i64 0))
  %225 = load i32, i32* %9, align 4
  %226 = sext i32 %225 to i64
  %227 = getelementptr inbounds [200 x i32], [200 x i32]* %16, i64 0, i64 %226
  %228 = load i32, i32* %227, align 4
  store i32 %228, i32* %3, align 4
  br label %229

229:                                              ; preds = %249, %223
  %230 = load i32, i32* %3, align 4
  %231 = load i32, i32* %9, align 4
  %232 = sext i32 %231 to i64
  %233 = getelementptr inbounds [200 x i32], [200 x i32]* %16, i64 0, i64 %232
  %234 = load i32, i32* %233, align 4
  %235 = load i32, i32* %9, align 4
  %236 = sext i32 %235 to i64
  %237 = getelementptr inbounds [200 x i32], [200 x i32]* %11, i64 0, i64 %236
  %238 = load i32, i32* %237, align 4
  %239 = add nsw i32 %234, %238
  %240 = sub nsw i32 %239, 1
  %241 = icmp sle i32 %230, %240
  br i1 %241, label %242, label %252

242:                                              ; preds = %229
  %243 = load i32, i32* %3, align 4
  %244 = sext i32 %243 to i64
  %245 = getelementptr inbounds [200000 x i8], [200000 x i8]* %2, i64 0, i64 %244
  %246 = load i8, i8* %245, align 1
  %247 = sext i8 %246 to i32
  %248 = call i32 (i8*, ...) @printf(i8* getelementptr inbounds ([3 x i8], [3 x i8]* @.str, i64 0, i64 0), i32 %247)
  br label %249

249:                                              ; preds = %242
  %250 = load i32, i32* %3, align 4
  %251 = add nsw i32 %250, 1
  store i32 %251, i32* %3, align 4
  br label %229

252:                                              ; preds = %229
  %253 = call i32 (i8*, ...) @printf(i8* getelementptr inbounds ([2 x i8], [2 x i8]* @.str.1, i64 0, i64 0))
  ret i32 0
}

declare dso_local i32 @gets(...) #1

; Function Attrs: nounwind readonly
declare dso_local i64 @strlen(i8*) #2

declare dso_local i32 @printf(i8*, ...) #1


!llvm.module.flags = !{!0}
!llvm.ident = !{!1}

!0 = !{i32 1, !"wchar_size", i32 4}
!1 = !{!"clang version 10.0.0-4ubuntu1 "}
